; Function Attrs: mustprogress uwtable
define hidden void @_ZN8reslimit10push_childEPS_(ptr noundef nonnull align 8 dereferenceable(40) %0, ptr noundef %1) local_unnamed_addr #3 align 2 personality ptr @__gxx_personality_v0 {
  %3 = load ptr, ptr @_ZL12g_rlimit_mux, align 8, !tbaa !3
  %4 = tail call noundef i32 @pthread_mutex_lock(ptr noundef nonnull align 8 dereferenceable(40) %3) #23
  %.not.i.i = icmp eq i32 %4, 0
  br i1 %.not.i.i, label %_ZNSt10lock_guardISt5mutexEC2ERS0_.exit, label %5

5:                                                ; preds = %2
  tail call void @_ZSt20__throw_system_errori(i32 noundef %4) #24
  unreachable

_ZNSt10lock_guardISt5mutexEC2ERS0_.exit:          ; preds = %2
  %6 = getelementptr inbounds nuw i8, ptr %0, i64 32
  %7 = load ptr, ptr %6, align 8, !tbaa !30
  %8 = icmp eq ptr %7, null
  br i1 %8, label %15, label %9

9:                                                ; preds = %_ZNSt10lock_guardISt5mutexEC2ERS0_.exit
  %10 = getelementptr inbounds i8, ptr %7, i64 -4
  %11 = load i32, ptr %10, align 4, !tbaa !28
  %12 = getelementptr inbounds i8, ptr %7, i64 -8
  %13 = load i32, ptr %12, align 4, !tbaa !28
  %14 = icmp eq i32 %11, %13
  br i1 %14, label %15, label %16

15:                                               ; preds = %9, %_ZNSt10lock_guardISt5mutexEC2ERS0_.exit
  invoke void @_ZN6vectorIP8reslimitLb0EjE13expand_vectorEv(ptr noundef nonnull align 8 dereferenceable(8) %6)
          to label %.noexc unwind label %24

.noexc:                                           ; preds = %15
  %.pre.i = load ptr, ptr %6, align 8, !tbaa !30
  %.phi.trans.insert.i = getelementptr inbounds i8, ptr %.pre.i, i64 -4
  %.pre2.i = load i32, ptr %.phi.trans.insert.i, align 4, !tbaa !28
  br label %16

16:                                               ; preds = %.noexc, %9
  %17 = phi i32 [ %.pre2.i, %.noexc ], [ %11, %9 ]
  %18 = phi ptr [ %.pre.i, %.noexc ], [ %7, %9 ]
  %19 = getelementptr inbounds i8, ptr %18, i64 -4
  %20 = zext i32 %17 to i64
  %21 = getelementptr inbounds nuw ptr, ptr %18, i64 %20
  store ptr %1, ptr %21, align 8, !tbaa !31
  %22 = add i32 %17, 1
  store i32 %22, ptr %19, align 4, !tbaa !28
  %23 = tail call noundef i32 @pthread_mutex_unlock(ptr noundef nonnull align 8 dereferenceable(40) %3) #23
  ret void

24:                                               ; preds = %15
  %25 = landingpad { ptr, i32 }
          cleanup
  %26 = tail call noundef i32 @pthread_mutex_unlock(ptr noundef nonnull align 8 dereferenceable(40) %3) #23
  resume { ptr, i32 } %25
}